; Function Attrs: mustprogress nofree norecurse nosync nounwind willreturn memory(read, inaccessiblemem: none) uwtable
define i32 @Gia_ObjFanin0CopyRepr(ptr noundef readonly captures(none) %0, ptr noundef %1, ptr noundef readonly captures(none) %2) local_unnamed_addr #7 {
  %4 = getelementptr i8, ptr %0, i64 32
  %.val13 = load ptr, ptr %4, align 8, !tbaa !28
  %5 = ptrtoint ptr %1 to i64
  %6 = ptrtoint ptr %.val13 to i64
  %7 = sub i64 %5, %6
  %8 = sdiv exact i64 %7, 12
  %.val3.i = load i64, ptr %1, align 4
  %9 = trunc i64 %.val3.i to i32
  %10 = and i64 %.val3.i, 536870911
  %11 = sub nsw i64 %8, %10
  %sext = shl i64 %11, 32
  %12 = ashr exact i64 %sext, 30
  %13 = getelementptr inbounds i8, ptr %2, i64 %12
  %14 = load i32, ptr %13, align 4, !tbaa !29
  %15 = icmp eq i32 %14, -1
  br i1 %15, label %16, label %20

16:                                               ; preds = %3
  %17 = sub nsw i64 0, %10
  %18 = getelementptr inbounds %struct.Gia_Obj_t_, ptr %1, i64 %17, i32 1
  %19 = lshr i32 %9, 29
  br label %26

20:                                               ; preds = %3
  %21 = ashr i32 %14, 1
  %22 = sext i32 %21 to i64
  %23 = getelementptr %struct.Gia_Obj_t_, ptr %.val13, i64 %22, i32 1
  %24 = lshr i32 %9, 29
  %25 = xor i32 %24, %14
  br label %26

26:                                               ; preds = %20, %16
  %.sink15 = phi i32 [ %25, %20 ], [ %19, %16 ]
  %.val14.sink.in = phi ptr [ %23, %20 ], [ %18, %16 ]
  %.val14.sink = load i32, ptr %.val14.sink.in, align 4, !tbaa !48
  %27 = and i32 %.sink15, 1
  %28 = xor i32 %.val14.sink, %27
  ret i32 %28
}